(lp0
S'Shop or Store'
p1
aS'Home'
p2
aS'Food (Restaurant, Cafe)'
p3
aS"Another's Home"
p4
aS'Professional or Medical Office'
p5
aS'Work'
p6
aS'Arts & Entertainment (Theater, Music Venue, Etc.)'
p7
aS'Outdoors & Recreation'
p8
aS'Spiritual (Church, Temple, Etc.)'
p9
aS'Vehicle'
p10
a.