(lp0
S'home'
p1
aS'errand'
p2
aS'dining'
p3
aS'socialize'
p4
aS'work'
p5
aS'entertainment'
p6
aS'travelling / traffic'
p7
aS'dining, socialize'
p8
aS'socialize, dining'
p9
aS'exercise'
p10
aS'shopping'
p11
aS'socialize, entertainment'
p12
a.